; Function Attrs: mustprogress uwtable
define hidden noundef zeroext i1 @_ZNK4cvc58internal12TheoryEngine10isRelevantENS0_12NodeTemplateILb1EEE(ptr nocapture noundef nonnull readonly align 8 dereferenceable(1448) %this, ptr nocapture noundef readonly %lit) local_unnamed_addr #3 align 2 personality ptr @__gxx_personality_v0 {
entry:
  %agg.tmp = alloca %"class.cvc5::internal::NodeTemplate.799", align 8
  %d_relManager = getelementptr inbounds i8, ptr %this, i64 200
  %0 = load ptr, ptr %d_relManager, align 8
  %cmp.i.i.not = icmp eq ptr %0, null
  br i1 %cmp.i.i.not, label %return, label %if.then

if.then:                                          ; preds = %entry
  %1 = load ptr, ptr %lit, align 8
  store ptr %1, ptr %agg.tmp, align 8
  %call4 = call noundef zeroext i1 @_ZN4cvc58internal6theory16RelevanceManager10isRelevantENS0_12NodeTemplateILb0EEE(ptr noundef nonnull align 8 dereferenceable(656) %0, ptr noundef nonnull %agg.tmp)
  br label %return

return:                                           ; preds = %if.then, %entry
  %retval.0 = phi i1 [ true, %entry ], [ %call4, %if.then ]
  ret i1 %retval.0
}